target datalayout = "e-m:e-p270:32:32-p271:32:32-p272:64:64-i64:64-i128:128-f80:128-n8:16:32:64-S128"
target triple = "x86_64-unknown-linux-gnu"

%"class.net::QuicConfigValue" = type { ptr, i32, i32 }
%"class.net::QuicNegotiableUint32" = type { %"class.net::QuicNegotiableValue.base", i32, i32, i32 }
%"class.net::QuicNegotiableValue.base" = type <{ %"class.net::QuicConfigValue", i8 }>
%"class.std::vector" = type { %"struct.std::_Vector_base" }
%"struct.std::_Vector_base" = type { %"struct.std::_Vector_base<unsigned int, std::allocator<unsigned int>>::_Vector_impl" }
%"struct.std::_Vector_base<unsigned int, std::allocator<unsigned int>>::_Vector_impl" = type { %"struct.std::_Vector_base<unsigned int, std::allocator<unsigned int>>::_Vector_impl_data" }
%"struct.std::_Vector_base<unsigned int, std::allocator<unsigned int>>::_Vector_impl_data" = type { ptr, ptr, ptr }
%"class.net::QuicFixedUint32" = type <{ %"class.net::QuicConfigValue", i32, i8, [3 x i8], i32, i8, [3 x i8] }>
%"class.net::QuicFixedTagVector" = type <{ %"class.net::QuicConfigValue", %"class.std::vector", i8, [7 x i8], %"class.std::vector", i8, [7 x i8] }>
%"class.net::QuicFixedIPEndPoint" = type <{ %"class.net::QuicConfigValue", %"class.net::IPEndPoint", i8, [7 x i8], %"class.net::IPEndPoint", i8, [7 x i8] }>
%"class.net::IPEndPoint" = type <{ %"class.net::IPAddress", i16, [6 x i8] }>
%"class.net::IPAddress" = type { %"class.std::vector.8" }
%"class.std::vector.8" = type { %"struct.std::_Vector_base.9" }
%"struct.std::_Vector_base.9" = type { %"struct.std::_Vector_base<unsigned char, std::allocator<unsigned char>>::_Vector_impl" }
%"struct.std::_Vector_base<unsigned char, std::allocator<unsigned char>>::_Vector_impl" = type { %"struct.std::_Vector_base<unsigned char, std::allocator<unsigned char>>::_Vector_impl_data" }
%"struct.std::_Vector_base<unsigned char, std::allocator<unsigned char>>::_Vector_impl_data" = type { ptr, ptr, ptr }
%"class.net::QuicConfig" = type { %"class.net::QuicTime::Delta", %"class.net::QuicTime::Delta", i64, %"class.net::QuicFixedTagVector", %"class.net::QuicNegotiableUint32", %"class.net::QuicNegotiableUint32", %"class.net::QuicNegotiableUint32", %"class.net::QuicFixedUint32", %"class.net::QuicFixedUint32", %"class.net::QuicFixedUint32", %"class.net::QuicFixedUint32", %"class.net::QuicFixedUint32", %"class.net::QuicFixedUint32", %"class.net::QuicNegotiableUint32", %"class.net::QuicFixedUint32", %"class.net::QuicFixedIPEndPoint", %"class.net::QuicFixedUint32" }
%"class.net::QuicTime::Delta" = type { %"class.base::TimeDelta", i64 }
%"class.base::TimeDelta" = type { i64 }

; Function Attrs: mustprogress uwtable
define linkonce_odr dso_local noundef nonnull align 8 dereferenceable(24) ptr @_ZN3net9IPAddressaSERKS0_(ptr noundef nonnull align 8 dereferenceable(24) %this, ptr noundef nonnull align 8 dereferenceable(24) %0) #0 comdat align 2 {
entry:
  %this.addr = alloca ptr, align 8
  %.addr = alloca ptr, align 8
  store ptr %this, ptr %this.addr, align 8
  store ptr %0, ptr %.addr, align 8
  %this1 = load ptr, ptr %this.addr, align 8
  %ip_address_ = getelementptr inbounds %"class.net::IPAddress", ptr %this1, i32 0, i32 0
  %1 = load ptr, ptr %.addr, align 8
  %ip_address_2 = getelementptr inbounds %"class.net::IPAddress", ptr %1, i32 0, i32 0
  %call = call noundef nonnull align 8 dereferenceable(24) ptr @_ZNSt6vectorIhSaIhEEaSERKS1_(ptr noundef nonnull align 8 dereferenceable(24) %ip_address_, ptr noundef nonnull align 8 dereferenceable(24) %ip_address_2)
  ret ptr %this1
}

; Function Attrs: mustprogress uwtable
define linkonce_odr dso_local noundef nonnull align 8 dereferenceable(26) ptr @_ZN3net10IPEndPointaSERKS0_(ptr noundef nonnull align 8 dereferenceable(26) %this, ptr noundef nonnull align 8 dereferenceable(26) %0) #0 comdat align 2 {
entry:
  %this.addr = alloca ptr, align 8
  %.addr = alloca ptr, align 8
  store ptr %this, ptr %this.addr, align 8
  store ptr %0, ptr %.addr, align 8
  %this1 = load ptr, ptr %this.addr, align 8
  %address_ = getelementptr inbounds %"class.net::IPEndPoint", ptr %this1, i32 0, i32 0
  %1 = load ptr, ptr %.addr, align 8
  %address_2 = getelementptr inbounds %"class.net::IPEndPoint", ptr %1, i32 0, i32 0
  %call = call noundef nonnull align 8 dereferenceable(24) ptr @_ZN3net9IPAddressaSERKS0_(ptr noundef nonnull align 8 dereferenceable(24) %address_, ptr noundef nonnull align 8 dereferenceable(24) %address_2)
  %2 = load ptr, ptr %.addr, align 8
  %port_ = getelementptr inbounds %"class.net::IPEndPoint", ptr %2, i32 0, i32 1
  %3 = load i16, ptr %port_, align 8
  %port_3 = getelementptr inbounds %"class.net::IPEndPoint", ptr %this1, i32 0, i32 1
  store i16 %3, ptr %port_3, align 8
  ret ptr %this1
}

; Function Attrs: mustprogress uwtable
define dso_local void @_ZN3net19QuicFixedIPEndPoint12SetSendValueERKNS_10IPEndPointE(ptr noundef nonnull align 8 dereferenceable(89) %this, ptr noundef nonnull align 8 dereferenceable(26) %value) #0 align 2 {
entry:
  %this.addr = alloca ptr, align 8
  %value.addr = alloca ptr, align 8
  store ptr %this, ptr %this.addr, align 8
  store ptr %value, ptr %value.addr, align 8
  %this1 = load ptr, ptr %this.addr, align 8
  %has_send_value_ = getelementptr inbounds %"class.net::QuicFixedIPEndPoint", ptr %this1, i32 0, i32 2
  store i8 1, ptr %has_send_value_, align 8
  %0 = load ptr, ptr %value.addr, align 8
  %send_value_ = getelementptr inbounds %"class.net::QuicFixedIPEndPoint", ptr %this1, i32 0, i32 1
  %call = call noundef nonnull align 8 dereferenceable(26) ptr @_ZN3net10IPEndPointaSERKS0_(ptr noundef nonnull align 8 dereferenceable(26) %send_value_, ptr noundef nonnull align 8 dereferenceable(26) %0)
  ret void
}

; Function Attrs: mustprogress uwtable
define dso_local void @_ZN3net10QuicConfig31SetAlternateServerAddressToSendERKNS_10IPEndPointE(ptr noundef nonnull align 8 dereferenceable(600) %this, ptr noundef nonnull align 8 dereferenceable(26) %alternate_server_address) #0 align 2 {
entry:
  %this.addr = alloca ptr, align 8
  %alternate_server_address.addr = alloca ptr, align 8
  store ptr %this, ptr %this.addr, align 8
  store ptr %alternate_server_address, ptr %alternate_server_address.addr, align 8
  %this1 = load ptr, ptr %this.addr, align 8
  %alternate_server_address_ = getelementptr inbounds %"class.net::QuicConfig", ptr %this1, i32 0, i32 15
  %0 = load ptr, ptr %alternate_server_address.addr, align 8
  call void @_ZN3net19QuicFixedIPEndPoint12SetSendValueERKNS_10IPEndPointE(ptr noundef nonnull align 8 dereferenceable(89) %alternate_server_address_, ptr noundef nonnull align 8 dereferenceable(26) %0)
  ret void
}