; Function Attrs: mustprogress uwtable
define dso_local void @_ZN3net10QuicConfig31SetAlternateServerAddressToSendERKNS_10IPEndPointE(ptr noundef nonnull align 8 dereferenceable(600) %this, ptr noundef nonnull align 8 dereferenceable(26) %alternate_server_address) local_unnamed_addr #0 align 2 {
entry:
  %has_send_value_.i = getelementptr inbounds i8, ptr %this, i64 520
  store i8 1, ptr %has_send_value_.i, align 8
  %send_value_.i = getelementptr inbounds i8, ptr %this, i64 488
  %call.i.i.i = tail call noundef nonnull align 8 dereferenceable(24) ptr @_ZNSt6vectorIhSaIhEEaSERKS1_(ptr noundef nonnull align 8 dereferenceable(24) %send_value_.i, ptr noundef nonnull align 8 dereferenceable(24) %alternate_server_address)
  %port_.i.i = getelementptr inbounds i8, ptr %alternate_server_address, i64 24
  %0 = load i16, ptr %port_.i.i, align 8
  %port_3.i.i = getelementptr inbounds i8, ptr %this, i64 512
  store i16 %0, ptr %port_3.i.i, align 8
  ret void
}